target datalayout = "e-m:e-p270:32:32-p271:32:32-p272:64:64-i64:64-i128:128-f80:128-n8:16:32:64-S128"
target triple = "x86_64-pc-linux-gnu"

; Function Attrs: inlinehint mustprogress nounwind uwtable
define internal noundef i32 @_ZN5faissL24fvec_madd_and_argmin_refEmPKffS1_Pf(i64 noundef %0, ptr noundef %1, float noundef %2, ptr noundef %3, ptr noundef %4) #4 {
  %6 = alloca i64, align 8
  %7 = alloca ptr, align 8
  %8 = alloca float, align 4
  %9 = alloca ptr, align 8
  %10 = alloca ptr, align 8
  %11 = alloca float, align 4
  %12 = alloca i32, align 4
  %13 = alloca i64, align 8
  store i64 %0, ptr %6, align 8, !tbaa !9
  store ptr %1, ptr %7, align 8, !tbaa !4
  store float %2, ptr %8, align 4, !tbaa !11
  store ptr %3, ptr %9, align 8, !tbaa !4
  store ptr %4, ptr %10, align 8, !tbaa !4
  call void @llvm.lifetime.start.p0(i64 4, ptr %11) #13
  store float 0x4415AF1D80000000, ptr %11, align 4, !tbaa !11
  call void @llvm.lifetime.start.p0(i64 4, ptr %12) #13
  store i32 -1, ptr %12, align 4, !tbaa !30
  call void @llvm.lifetime.start.p0(i64 8, ptr %13) #13
  store i64 0, ptr %13, align 8, !tbaa !9
  br label %14

14:                                               ; preds = %47, %5
  %15 = load i64, ptr %13, align 8, !tbaa !9
  %16 = load i64, ptr %6, align 8, !tbaa !9
  %17 = icmp ult i64 %15, %16
  br i1 %17, label %19, label %18

18:                                               ; preds = %14
  call void @llvm.lifetime.end.p0(i64 8, ptr %13) #13
  br label %50

19:                                               ; preds = %14
  %20 = load ptr, ptr %7, align 8, !tbaa !4
  %21 = load i64, ptr %13, align 8, !tbaa !9
  %22 = getelementptr inbounds nuw float, ptr %20, i64 %21
  %23 = load float, ptr %22, align 4, !tbaa !11
  %24 = load float, ptr %8, align 4, !tbaa !11
  %25 = load ptr, ptr %9, align 8, !tbaa !4
  %26 = load i64, ptr %13, align 8, !tbaa !9
  %27 = getelementptr inbounds nuw float, ptr %25, i64 %26
  %28 = load float, ptr %27, align 4, !tbaa !11
  %29 = call float @llvm.fmuladd.f32(float %24, float %28, float %23)
  %30 = load ptr, ptr %10, align 8, !tbaa !4
  %31 = load i64, ptr %13, align 8, !tbaa !9
  %32 = getelementptr inbounds nuw float, ptr %30, i64 %31
  store float %29, ptr %32, align 4, !tbaa !11
  %33 = load ptr, ptr %10, align 8, !tbaa !4
  %34 = load i64, ptr %13, align 8, !tbaa !9
  %35 = getelementptr inbounds nuw float, ptr %33, i64 %34
  %36 = load float, ptr %35, align 4, !tbaa !11
  %37 = load float, ptr %11, align 4, !tbaa !11
  %38 = fcmp olt float %36, %37
  br i1 %38, label %39, label %46

39:                                               ; preds = %19
  %40 = load ptr, ptr %10, align 8, !tbaa !4
  %41 = load i64, ptr %13, align 8, !tbaa !9
  %42 = getelementptr inbounds nuw float, ptr %40, i64 %41
  %43 = load float, ptr %42, align 4, !tbaa !11
  store float %43, ptr %11, align 4, !tbaa !11
  %44 = load i64, ptr %13, align 8, !tbaa !9
  %45 = trunc i64 %44 to i32
  store i32 %45, ptr %12, align 4, !tbaa !30
  br label %46

46:                                               ; preds = %39, %19
  br label %47

47:                                               ; preds = %46
  %48 = load i64, ptr %13, align 8, !tbaa !9
  %49 = add i64 %48, 1
  store i64 %49, ptr %13, align 8, !tbaa !9
  br label %14, !llvm.loop !32

50:                                               ; preds = %18
  %51 = load i32, ptr %12, align 4, !tbaa !30
  call void @llvm.lifetime.end.p0(i64 4, ptr %12) #13
  call void @llvm.lifetime.end.p0(i64 4, ptr %11) #13
  ret i32 %51
}

; Function Attrs: mustprogress uwtable
define noundef i32 @_ZN5faiss20fvec_madd_and_argminEmPKffS1_Pf(i64 noundef %0, ptr noundef %1, float noundef %2, ptr noundef %3, ptr noundef %4) #3 {
  %6 = alloca i64, align 8
  %7 = alloca ptr, align 8
  %8 = alloca float, align 4
  %9 = alloca ptr, align 8
  %10 = alloca ptr, align 8
  store i64 %0, ptr %6, align 8, !tbaa !9
  store ptr %1, ptr %7, align 8, !tbaa !4
  store float %2, ptr %8, align 4, !tbaa !11
  store ptr %3, ptr %9, align 8, !tbaa !4
  store ptr %4, ptr %10, align 8, !tbaa !4
  %11 = load i64, ptr %6, align 8, !tbaa !9
  %12 = load ptr, ptr %7, align 8, !tbaa !4
  %13 = load float, ptr %8, align 4, !tbaa !11
  %14 = load ptr, ptr %9, align 8, !tbaa !4
  %15 = load ptr, ptr %10, align 8, !tbaa !4
  %16 = call noundef i32 @_ZN5faissL24fvec_madd_and_argmin_refEmPKffS1_Pf(i64 noundef %11, ptr noundef %12, float noundef %13, ptr noundef %14, ptr noundef %15)
  ret i32 %16
}