; Function Attrs: mustprogress nofree norecurse nosync nounwind memory(argmem: readwrite) uwtable
define noundef i32 @_ZN5faiss20fvec_madd_and_argminEmPKffS1_Pf(i64 noundef %0, ptr noundef readonly captures(none) %1, float noundef %2, ptr noundef readonly captures(none) %3, ptr noundef writeonly captures(none) %4) local_unnamed_addr #2 {
  %.not.i = icmp eq i64 %0, 0
  br i1 %.not.i, label %_ZN5faissL24fvec_madd_and_argmin_refEmPKffS1_Pf.exit, label %.lr.ph.i

.lr.ph.i:                                         ; preds = %5, %.lr.ph.i
  %.022.i = phi i64 [ %14, %.lr.ph.i ], [ 0, %5 ]
  %.01621.i = phi i32 [ %.1.i, %.lr.ph.i ], [ -1, %5 ]
  %.01720.i = phi float [ %.118.i, %.lr.ph.i ], [ 0x4415AF1D80000000, %5 ]
  %6 = getelementptr inbounds nuw float, ptr %1, i64 %.022.i
  %7 = load float, ptr %6, align 4, !tbaa !4
  %8 = getelementptr inbounds nuw float, ptr %3, i64 %.022.i
  %9 = load float, ptr %8, align 4, !tbaa !4
  %10 = tail call float @llvm.fmuladd.f32(float %2, float %9, float %7)
  %11 = getelementptr inbounds nuw float, ptr %4, i64 %.022.i
  store float %10, ptr %11, align 4, !tbaa !4
  %12 = fcmp olt float %10, %.01720.i
  %13 = trunc i64 %.022.i to i32
  %.118.i = select i1 %12, float %10, float %.01720.i
  %.1.i = select i1 %12, i32 %13, i32 %.01621.i
  %14 = add nuw i64 %.022.i, 1
  %exitcond.not.i = icmp eq i64 %14, %0
  br i1 %exitcond.not.i, label %_ZN5faissL24fvec_madd_and_argmin_refEmPKffS1_Pf.exit, label %.lr.ph.i, !llvm.loop !43

_ZN5faissL24fvec_madd_and_argmin_refEmPKffS1_Pf.exit: ; preds = %.lr.ph.i, %5
  %.016.lcssa.i = phi i32 [ -1, %5 ], [ %.1.i, %.lr.ph.i ]
  ret i32 %.016.lcssa.i
}